; Function Attrs: mustprogress uwtable
define void @_ZN3zmq12radix_tree_t5applyEPFvPhmPvES2_(ptr noundef nonnull readonly align 8 captures(none) dereferenceable(16) %0, ptr noundef readonly captures(none) %1, ptr noundef %2) local_unnamed_addr #7 align 2 personality ptr @__gxx_personality_v0 {
  %4 = alloca %struct.node_t, align 8
  %5 = alloca %"class.std::vector", align 8
  %6 = load ptr, ptr %0, align 8, !tbaa !3
  %.0.copyload.i = load i32, ptr %6, align 1
  %.not = icmp eq i32 %.0.copyload.i, 0
  br i1 %.not, label %8, label %7

7:                                                ; preds = %3
  tail call void %1(ptr noundef null, i64 noundef 0, ptr noundef %2)
  %.pre = load ptr, ptr %0, align 8, !tbaa !3
  br label %8

8:                                                ; preds = %7, %3
  %9 = phi ptr [ %.pre, %7 ], [ %6, %3 ]
  call void @llvm.lifetime.start.p0(i64 24, ptr nonnull %5) #27
  call void @llvm.memset.p0.i64(ptr noundef nonnull align 8 dereferenceable(24) %5, i8 0, i64 24, i1 false)
  %10 = getelementptr inbounds nuw i8, ptr %9, i64 8
  %.0.copyload.i914 = load i32, ptr %10, align 1
  %.not16 = icmp eq i32 %.0.copyload.i914, 0
  br i1 %.not16, label %_ZNSt6vectorIhSaIhEED2Ev.exit, label %.lr.ph.preheader

.lr.ph.preheader:                                 ; preds = %8
  %11 = zext i32 %.0.copyload.i914 to i64
  br label %.lr.ph

._crit_edge:                                      ; preds = %24
  %.pre17 = load ptr, ptr %5, align 8, !tbaa !32
  %.not.i.i.i = icmp eq ptr %.pre17, null
  br i1 %.not.i.i.i, label %_ZNSt6vectorIhSaIhEED2Ev.exit, label %12

12:                                               ; preds = %._crit_edge
  call void @_ZdlPv(ptr noundef nonnull %.pre17) #28
  br label %_ZNSt6vectorIhSaIhEED2Ev.exit

_ZNSt6vectorIhSaIhEED2Ev.exit:                    ; preds = %8, %._crit_edge, %12
  call void @llvm.lifetime.end.p0(i64 24, ptr nonnull %5) #27
  ret void

.lr.ph:                                           ; preds = %.lr.ph.preheader, %24
  %13 = phi i64 [ %28, %24 ], [ %11, %.lr.ph.preheader ]
  %14 = phi ptr [ %26, %24 ], [ %9, %.lr.ph.preheader ]
  %.015 = phi i64 [ %25, %24 ], [ 0, %.lr.ph.preheader ]
  call void @llvm.lifetime.start.p0(i64 8, ptr nonnull %4)
  %15 = getelementptr inbounds nuw i8, ptr %14, i64 12
  %16 = getelementptr inbounds nuw i8, ptr %14, i64 4
  %.0.copyload.i.i.i = load i32, ptr %16, align 1
  %17 = zext i32 %.0.copyload.i.i.i to i64
  %18 = getelementptr inbounds nuw i8, ptr %15, i64 %17
  %19 = getelementptr inbounds nuw i8, ptr %18, i64 %13
  %20 = shl nuw nsw i64 %.015, 3
  %21 = getelementptr inbounds nuw i8, ptr %19, i64 %20
  %.0.copyload.i10 = load ptr, ptr %21, align 1
  invoke void @_ZN6node_tC1EPh(ptr noundef nonnull align 8 dereferenceable(8) %4, ptr noundef %.0.copyload.i10)
          to label %22 unwind label %30

22:                                               ; preds = %.lr.ph
  %23 = load ptr, ptr %4, align 8
  call void @llvm.lifetime.end.p0(i64 8, ptr nonnull %4)
  invoke fastcc void @_ZL10visit_keys6node_tRSt6vectorIhSaIhEEPFvPhmPvES5_(ptr %23, ptr noundef nonnull align 8 dereferenceable(24) %5, ptr noundef %1, ptr noundef %2)
          to label %24 unwind label %30

24:                                               ; preds = %22
  %25 = add nuw nsw i64 %.015, 1
  %26 = load ptr, ptr %0, align 8, !tbaa !3
  %27 = getelementptr inbounds nuw i8, ptr %26, i64 8
  %.0.copyload.i9 = load i32, ptr %27, align 1
  %28 = zext i32 %.0.copyload.i9 to i64
  %29 = icmp samesign ult i64 %25, %28
  br i1 %29, label %.lr.ph, label %._crit_edge, !llvm.loop !34

30:                                               ; preds = %.lr.ph, %22
  %31 = landingpad { ptr, i32 }
          cleanup
  %32 = load ptr, ptr %5, align 8, !tbaa !32
  %.not.i.i.i12 = icmp eq ptr %32, null
  br i1 %.not.i.i.i12, label %_ZNSt6vectorIhSaIhEED2Ev.exit13, label %33

33:                                               ; preds = %30
  call void @_ZdlPv(ptr noundef nonnull %32) #28
  br label %_ZNSt6vectorIhSaIhEED2Ev.exit13

_ZNSt6vectorIhSaIhEED2Ev.exit13:                  ; preds = %30, %33
  call void @llvm.lifetime.end.p0(i64 24, ptr nonnull %5) #27
  resume { ptr, i32 } %31
}